; Function Attrs: nounwind sspstrong uwtable
define internal i64 @io_buffer_get_string(i32 noundef %0, ptr noundef readonly captures(none) %1, i64 noundef %2) #0 {
  %4 = alloca i64, align 8
  %5 = alloca i64, align 8
  %or.cond.i = icmp ugt i32 %0, 3
  br i1 %or.cond.i, label %6, label %rb_check_arity.exit

6:                                                ; preds = %3
  tail call void @rb_error_arity(i32 noundef %0, i32 noundef 0, i32 noundef 3) #26
  unreachable

rb_check_arity.exit:                              ; preds = %3
  call void @llvm.lifetime.start.p0(i64 8, ptr nonnull %4) #25
  call void @llvm.lifetime.start.p0(i64 8, ptr nonnull %5) #25
  %7 = call fastcc ptr @io_buffer_extract_offset_length(i64 noundef %2, i32 noundef %0, ptr noundef %1, ptr noundef %4, ptr noundef %5)
  %8 = getelementptr inbounds nuw i8, ptr %7, i64 24
  %9 = load i64, ptr %8, align 8, !tbaa !7
  %.not.i.i = icmp eq i64 %9, 4
  br i1 %.not.i.i, label %io_buffer_validate.exit.thread.i, label %io_buffer_validate.exit.i

io_buffer_validate.exit.i:                        ; preds = %rb_check_arity.exit
  %10 = load ptr, ptr %7, align 8, !tbaa !14
  %11 = getelementptr inbounds nuw i8, ptr %7, i64 8
  %12 = load i64, ptr %11, align 8, !tbaa !16
  %13 = tail call fastcc i32 @io_buffer_validate_slice(i64 noundef %9, ptr noundef %10, i64 noundef %12)
  %.not.i = icmp eq i32 %13, 0
  br i1 %.not.i, label %14, label %io_buffer_validate.exit.thread.i

14:                                               ; preds = %io_buffer_validate.exit.i
  %15 = load i64, ptr @rb_eIOBufferInvalidatedError, align 8, !tbaa !22
  tail call void (i64, ptr, ...) @rb_raise(i64 noundef %15, ptr noundef nonnull @.str.119) #26
  unreachable

io_buffer_validate.exit.thread.i:                 ; preds = %io_buffer_validate.exit.i, %rb_check_arity.exit
  %16 = load ptr, ptr %7, align 8, !tbaa !14
  %17 = icmp eq i32 %0, 3
  br i1 %17, label %18, label %22

18:                                               ; preds = %io_buffer_validate.exit.thread.i
  %19 = getelementptr i8, ptr %1, i64 16
  %20 = load i64, ptr %19, align 8, !tbaa !22
  %21 = tail call ptr @rb_find_encoding(i64 noundef %20) #25
  br label %24

22:                                               ; preds = %io_buffer_validate.exit.thread.i
  %23 = tail call nonnull ptr @rb_ascii8bit_encoding() #25
  br label %24

24:                                               ; preds = %22, %18
  %.0 = phi ptr [ %21, %18 ], [ %23, %22 ]
  %25 = load i64, ptr %4, align 8, !tbaa !22
  %26 = load i64, ptr %5, align 8, !tbaa !22
  %27 = getelementptr i8, ptr %7, i64 8
  %.val = load i64, ptr %27, align 8, !tbaa !16
  %28 = add i64 %26, %25
  %29 = icmp ugt i64 %28, %.val
  br i1 %29, label %30, label %io_buffer_validate_range.exit

30:                                               ; preds = %24
  %31 = load i64, ptr @rb_eArgError, align 8, !tbaa !22
  tail call void (i64, ptr, ...) @rb_raise(i64 noundef %31, ptr noundef nonnull @.str.126) #26
  unreachable

io_buffer_validate_range.exit:                    ; preds = %24
  %32 = getelementptr i8, ptr %16, i64 %25
  %33 = tail call i64 @rb_enc_str_new(ptr noundef %32, i64 noundef %26, ptr noundef %.0) #25
  call void @llvm.lifetime.end.p0(i64 8, ptr nonnull %5) #25
  call void @llvm.lifetime.end.p0(i64 8, ptr nonnull %4) #25
  ret i64 %33
}